target datalayout = "e-m:e-p270:32:32-p271:32:32-p272:64:64-i64:64-i128:128-f80:128-n8:16:32:64-S128"
target triple = "x86_64-pc-linux-gnu"

%struct.FunctionCallInfoBaseData = type { ptr, ptr, ptr, i32, i8, i16, [0 x %struct.NullableDatum] }
%struct.NullableDatum = type { i64, i8 }

@.str.23 = private unnamed_addr constant [15 x i8] c"%d, %d, %d, %d\00", align 1

; Function Attrs: inlinehint nounwind uwtable
define internal ptr @DatumGetPointer(i64 noundef %0) #2 {
  %2 = alloca i64, align 8
  store i64 %0, ptr %2, align 8
  %3 = load i64, ptr %2, align 8
  %4 = inttoptr i64 %3 to ptr
  ret ptr %4
}

; Function Attrs: inlinehint nounwind uwtable
define internal i64 @PointerGetDatum(ptr noundef %0) #2 {
  %2 = alloca ptr, align 8
  store ptr %0, ptr %2, align 8
  %3 = load ptr, ptr %2, align 8
  %4 = ptrtoint ptr %3 to i64
  ret i64 %4
}

; Function Attrs: inlinehint nounwind uwtable
define internal ptr @DatumGetCString(i64 noundef %0) #2 {
  %2 = alloca i64, align 8
  store i64 %0, ptr %2, align 8
  %3 = load i64, ptr %2, align 8
  %4 = call ptr @DatumGetPointer(i64 noundef %3)
  ret ptr %4
}

; Function Attrs: nounwind uwtable
define i64 @int44in(ptr noundef %0) #0 {
  %2 = alloca ptr, align 8
  %3 = alloca ptr, align 8
  %4 = alloca ptr, align 8
  %5 = alloca i32, align 4
  store ptr %0, ptr %2, align 8
  call void @llvm.lifetime.start.p0(i64 8, ptr %3) #13
  %6 = load ptr, ptr %2, align 8
  %7 = getelementptr inbounds nuw %struct.FunctionCallInfoBaseData, ptr %6, i32 0, i32 6
  %8 = getelementptr inbounds [0 x %struct.NullableDatum], ptr %7, i64 0, i64 0
  %9 = getelementptr inbounds nuw %struct.NullableDatum, ptr %8, i32 0, i32 0
  %10 = load i64, ptr %9, align 8
  %11 = call ptr @DatumGetCString(i64 noundef %10)
  store ptr %11, ptr %3, align 8
  call void @llvm.lifetime.start.p0(i64 8, ptr %4) #13
  %12 = call ptr @palloc(i64 noundef 16)
  store ptr %12, ptr %4, align 8
  call void @llvm.lifetime.start.p0(i64 4, ptr %5) #13
  %13 = load ptr, ptr %3, align 8
  %14 = load ptr, ptr %4, align 8
  %15 = getelementptr inbounds i32, ptr %14, i64 0
  %16 = load ptr, ptr %4, align 8
  %17 = getelementptr inbounds i32, ptr %16, i64 1
  %18 = load ptr, ptr %4, align 8
  %19 = getelementptr inbounds i32, ptr %18, i64 2
  %20 = load ptr, ptr %4, align 8
  %21 = getelementptr inbounds i32, ptr %20, i64 3
  %22 = call i32 (ptr, ptr, ...) @__isoc99_sscanf(ptr noundef %13, ptr noundef @.str.23, ptr noundef %15, ptr noundef %17, ptr noundef %19, ptr noundef %21) #13
  store i32 %22, ptr %5, align 4
  br label %23

23:                                               ; preds = %26, %1
  %24 = load i32, ptr %5, align 4
  %25 = icmp slt i32 %24, 4
  br i1 %25, label %26, label %32

26:                                               ; preds = %23
  %27 = load ptr, ptr %4, align 8
  %28 = load i32, ptr %5, align 4
  %29 = add i32 %28, 1
  store i32 %29, ptr %5, align 4
  %30 = sext i32 %28 to i64
  %31 = getelementptr inbounds i32, ptr %27, i64 %30
  store i32 0, ptr %31, align 4
  br label %23, !llvm.loop !14

32:                                               ; preds = %23
  %33 = load ptr, ptr %4, align 8
  %34 = call i64 @PointerGetDatum(ptr noundef %33)
  call void @llvm.lifetime.end.p0(i64 4, ptr %5) #13
  call void @llvm.lifetime.end.p0(i64 8, ptr %4) #13
  call void @llvm.lifetime.end.p0(i64 8, ptr %3) #13
  ret i64 %34
}