; Function Attrs: nounwind uwtable
define noundef i64 @int44in(ptr noundef readonly captures(none) %0) local_unnamed_addr #1 {
  %2 = getelementptr inbounds nuw i8, ptr %0, i64 32
  %3 = load i64, ptr %2, align 8
  %4 = inttoptr i64 %3 to ptr
  %5 = tail call ptr @palloc(i64 noundef 16) #18
  %6 = getelementptr inbounds nuw i8, ptr %5, i64 4
  %7 = getelementptr inbounds nuw i8, ptr %5, i64 8
  %8 = getelementptr inbounds nuw i8, ptr %5, i64 12
  %9 = tail call i32 (ptr, ptr, ...) @__isoc99_sscanf(ptr noundef %4, ptr noundef nonnull @.str.23, ptr noundef %5, ptr noundef nonnull %6, ptr noundef nonnull %7, ptr noundef nonnull %8) #18
  %10 = icmp slt i32 %9, 4
  br i1 %10, label %.lr.ph.preheader, label %._crit_edge

.lr.ph.preheader:                                 ; preds = %1
  %11 = sext i32 %9 to i64
  %12 = shl nsw i64 %11, 2
  %scevgep = getelementptr i8, ptr %5, i64 %12
  %13 = sub i32 3, %9
  %14 = zext i32 %13 to i64
  %15 = shl nuw nsw i64 %14, 2
  %16 = add nuw nsw i64 %15, 4
  tail call void @llvm.memset.p0.i64(ptr noundef nonnull align 4 dereferenceable(1) %scevgep, i8 0, i64 %16, i1 false)
  br label %._crit_edge

._crit_edge:                                      ; preds = %.lr.ph.preheader, %1
  %17 = ptrtoint ptr %5 to i64
  ret i64 %17
}